target datalayout = "e-m:e-p270:32:32-p271:32:32-p272:64:64-i64:64-i128:128-f80:128-n8:16:32:64-S128"
target triple = "x86_64-pc-linux-gnu"

%struct._fcgi_request = type { i32, i32, i32, i32, i32, i32, i32, i32, i32, ptr, ptr, [8192 x i8], [16 x i8], %struct._fcgi_req_hook, i32, %struct._fcgi_hash }
%struct._fcgi_req_hook = type { ptr, ptr, ptr }
%struct._fcgi_hash = type { [128 x ptr], ptr, ptr, ptr }
%struct._fcgi_hash_bucket = type { i32, i32, ptr, i32, ptr, ptr, ptr }

; Function Attrs: nounwind uwtable
define internal ptr @fcgi_hash_get(ptr noundef %0, i32 noundef %1, ptr noundef %2, i32 noundef %3, ptr noundef %4) #0 {
  %6 = alloca ptr, align 8
  %7 = alloca ptr, align 8
  %8 = alloca i32, align 4
  %9 = alloca ptr, align 8
  %10 = alloca i32, align 4
  %11 = alloca ptr, align 8
  %12 = alloca i32, align 4
  %13 = alloca ptr, align 8
  store ptr %0, ptr %7, align 8
  store i32 %1, ptr %8, align 4
  store ptr %2, ptr %9, align 8
  store i32 %3, ptr %10, align 4
  store ptr %4, ptr %11, align 8
  %14 = load i32, ptr %8, align 4
  %15 = and i32 %14, 127
  store i32 %15, ptr %12, align 4
  %16 = load ptr, ptr %7, align 8
  %17 = getelementptr inbounds %struct._fcgi_hash, ptr %16, i32 0, i32 0
  %18 = load i32, ptr %12, align 4
  %19 = zext i32 %18 to i64
  %20 = getelementptr inbounds [128 x ptr], ptr %17, i64 0, i64 %19
  %21 = load ptr, ptr %20, align 8
  store ptr %21, ptr %13, align 8
  br label %22

22:                                               ; preds = %54, %5
  %23 = load ptr, ptr %13, align 8
  %24 = icmp ne ptr %23, null
  br i1 %24, label %25, label %58

25:                                               ; preds = %22
  %26 = load ptr, ptr %13, align 8
  %27 = getelementptr inbounds %struct._fcgi_hash_bucket, ptr %26, i32 0, i32 0
  %28 = load i32, ptr %27, align 8
  %29 = load i32, ptr %8, align 4
  %30 = icmp eq i32 %28, %29
  br i1 %30, label %31, label %54

31:                                               ; preds = %25
  %32 = load ptr, ptr %13, align 8
  %33 = getelementptr inbounds %struct._fcgi_hash_bucket, ptr %32, i32 0, i32 1
  %34 = load i32, ptr %33, align 4
  %35 = load i32, ptr %10, align 4
  %36 = icmp eq i32 %34, %35
  br i1 %36, label %37, label %54

37:                                               ; preds = %31
  %38 = load ptr, ptr %13, align 8
  %39 = getelementptr inbounds %struct._fcgi_hash_bucket, ptr %38, i32 0, i32 2
  %40 = load ptr, ptr %39, align 8
  %41 = load ptr, ptr %9, align 8
  %42 = load i32, ptr %10, align 4
  %43 = zext i32 %42 to i64
  %44 = call i32 @memcmp(ptr noundef %40, ptr noundef %41, i64 noundef %43) #16
  %45 = icmp eq i32 %44, 0
  br i1 %45, label %46, label %54

46:                                               ; preds = %37
  %47 = load ptr, ptr %13, align 8
  %48 = getelementptr inbounds %struct._fcgi_hash_bucket, ptr %47, i32 0, i32 3
  %49 = load i32, ptr %48, align 8
  %50 = load ptr, ptr %11, align 8
  store i32 %49, ptr %50, align 4
  %51 = load ptr, ptr %13, align 8
  %52 = getelementptr inbounds %struct._fcgi_hash_bucket, ptr %51, i32 0, i32 4
  %53 = load ptr, ptr %52, align 8
  store ptr %53, ptr %6, align 8
  br label %59

54:                                               ; preds = %37, %31, %25
  %55 = load ptr, ptr %13, align 8
  %56 = getelementptr inbounds %struct._fcgi_hash_bucket, ptr %55, i32 0, i32 5
  %57 = load ptr, ptr %56, align 8
  store ptr %57, ptr %13, align 8
  br label %22

58:                                               ; preds = %22
  store ptr null, ptr %6, align 8
  br label %59

59:                                               ; preds = %58, %46
  %60 = load ptr, ptr %6, align 8
  ret ptr %60
}

; Function Attrs: nounwind uwtable
define hidden ptr @fcgi_getenv(ptr noundef %0, ptr noundef %1, i32 noundef %2) #0 {
  %4 = alloca ptr, align 8
  %5 = alloca ptr, align 8
  %6 = alloca ptr, align 8
  %7 = alloca i32, align 4
  %8 = alloca i32, align 4
  store ptr %0, ptr %5, align 8
  store ptr %1, ptr %6, align 8
  store i32 %2, ptr %7, align 4
  %9 = load ptr, ptr %5, align 8
  %10 = icmp ne ptr %9, null
  br i1 %10, label %12, label %11

11:                                               ; preds = %3
  store ptr null, ptr %4, align 8
  br label %55

12:                                               ; preds = %3
  %13 = load ptr, ptr %5, align 8
  %14 = getelementptr inbounds %struct._fcgi_request, ptr %13, i32 0, i32 15
  %15 = load i32, ptr %7, align 4
  %16 = icmp slt i32 %15, 3
  %17 = xor i1 %16, true
  %18 = xor i1 %17, true
  %19 = zext i1 %18 to i32
  %20 = sext i32 %19 to i64
  %21 = icmp ne i64 %20, 0
  br i1 %21, label %22, label %24

22:                                               ; preds = %12
  %23 = load i32, ptr %7, align 4
  br label %50

24:                                               ; preds = %12
  %25 = load ptr, ptr %6, align 8
  %26 = getelementptr inbounds i8, ptr %25, i64 3
  %27 = load i8, ptr %26, align 1
  %28 = sext i8 %27 to i32
  %29 = shl i32 %28, 2
  %30 = load ptr, ptr %6, align 8
  %31 = load i32, ptr %7, align 4
  %32 = sub nsw i32 %31, 2
  %33 = sext i32 %32 to i64
  %34 = getelementptr inbounds i8, ptr %30, i64 %33
  %35 = load i8, ptr %34, align 1
  %36 = sext i8 %35 to i32
  %37 = shl i32 %36, 4
  %38 = add i32 %29, %37
  %39 = load ptr, ptr %6, align 8
  %40 = load i32, ptr %7, align 4
  %41 = sub nsw i32 %40, 1
  %42 = sext i32 %41 to i64
  %43 = getelementptr inbounds i8, ptr %39, i64 %42
  %44 = load i8, ptr %43, align 1
  %45 = sext i8 %44 to i32
  %46 = shl i32 %45, 2
  %47 = add i32 %38, %46
  %48 = load i32, ptr %7, align 4
  %49 = add i32 %47, %48
  br label %50

50:                                               ; preds = %24, %22
  %51 = phi i32 [ %23, %22 ], [ %49, %24 ]
  %52 = load ptr, ptr %6, align 8
  %53 = load i32, ptr %7, align 4
  %54 = call ptr @fcgi_hash_get(ptr noundef %14, i32 noundef %51, ptr noundef %52, i32 noundef %53, ptr noundef %8)
  store ptr %54, ptr %4, align 8
  br label %55

55:                                               ; preds = %50, %11
  %56 = load ptr, ptr %4, align 8
  ret ptr %56
}