; Function Attrs: nofree nounwind memory(read, inaccessiblemem: none) uwtable
define hidden ptr @fcgi_getenv(ptr noundef readonly %0, ptr nocapture noundef readonly %1, i32 noundef %2) local_unnamed_addr #24 {
  %.not = icmp eq ptr %0, null
  br i1 %.not, label %fcgi_hash_get.exit, label %4

4:                                                ; preds = %3
  %5 = getelementptr inbounds i8, ptr %0, i64 8296
  %6 = icmp slt i32 %2, 3
  br i1 %6, label %24, label %7

7:                                                ; preds = %4
  %8 = getelementptr inbounds i8, ptr %1, i64 3
  %9 = load i8, ptr %8, align 1
  %10 = sext i8 %9 to i32
  %11 = zext nneg i32 %2 to i64
  %12 = getelementptr i8, ptr %1, i64 %11
  %13 = getelementptr i8, ptr %12, i64 -2
  %14 = load i8, ptr %13, align 1
  %15 = sext i8 %14 to i32
  %16 = shl nsw i32 %15, 4
  %17 = getelementptr i8, ptr %12, i64 -1
  %18 = load i8, ptr %17, align 1
  %19 = sext i8 %18 to i32
  %20 = add nsw i32 %19, %10
  %21 = shl nsw i32 %20, 2
  %22 = add i32 %16, %2
  %23 = add i32 %22, %21
  br label %24

24:                                               ; preds = %4, %7
  %25 = phi i32 [ %23, %7 ], [ %2, %4 ]
  %26 = and i32 %25, 127
  %27 = zext nneg i32 %26 to i64
  %28 = getelementptr inbounds [128 x ptr], ptr %5, i64 0, i64 %27
  %.018.i = load ptr, ptr %28, align 8
  %.not19.i = icmp eq ptr %.018.i, null
  br i1 %.not19.i, label %fcgi_hash_get.exit, label %.lr.ph.i

.lr.ph.i:                                         ; preds = %24
  %29 = zext i32 %2 to i64
  br label %30

30:                                               ; preds = %44, %.lr.ph.i
  %.020.i = phi ptr [ %.018.i, %.lr.ph.i ], [ %.0.i, %44 ]
  %31 = load i32, ptr %.020.i, align 8
  %32 = icmp eq i32 %31, %25
  br i1 %32, label %33, label %44

33:                                               ; preds = %30
  %34 = getelementptr inbounds i8, ptr %.020.i, i64 4
  %35 = load i32, ptr %34, align 4
  %36 = icmp eq i32 %35, %2
  br i1 %36, label %37, label %44

37:                                               ; preds = %33
  %38 = getelementptr inbounds i8, ptr %.020.i, i64 8
  %39 = load ptr, ptr %38, align 8
  %bcmp.i = tail call i32 @bcmp(ptr %39, ptr %1, i64 %29)
  %40 = icmp eq i32 %bcmp.i, 0
  br i1 %40, label %41, label %44

41:                                               ; preds = %37
  %42 = getelementptr inbounds i8, ptr %.020.i, i64 24
  %43 = load ptr, ptr %42, align 8
  br label %fcgi_hash_get.exit

44:                                               ; preds = %37, %33, %30
  %45 = getelementptr inbounds i8, ptr %.020.i, i64 32
  %.0.i = load ptr, ptr %45, align 8
  %.not.i = icmp eq ptr %.0.i, null
  br i1 %.not.i, label %fcgi_hash_get.exit, label %30

fcgi_hash_get.exit:                               ; preds = %44, %41, %24, %3
  %.0 = phi ptr [ null, %3 ], [ %43, %41 ], [ null, %24 ], [ null, %44 ]
  ret ptr %.0
}